; ModuleID = '49/1164.c'
source_filename = "49/1164.c"
target datalayout = "e-m:e-p270:32:32-p271:32:32-p272:64:64-i64:64-f80:128-n8:16:32:64-S128"
target triple = "x86_64-pc-linux-gnu"

; Function Attrs: noinline nounwind uwtable
define dso_local i32 @main() #0 {
  %1 = alloca i32, align 4
  %2 = alloca [500 x i8], align 16
  %3 = alloca i32, align 4
  %4 = alloca i32, align 4
  %5 = alloca i32, align 4
  %6 = alloca i32, align 4
  %7 = alloca i32, align 4
  %8 = alloca [500 x i8], align 16
  %9 = alloca [500 x i8], align 16
  store i32 0, i32* %1, align 4
  %10 = getelementptr inbounds [500 x i8], [500 x i8]* %2, i64 0, i64 0
  %11 = call i32 (i8*, ...) bitcast (i32 (...)* @gets to i32 (i8*, ...)*)(i8* %10)
  store i32 0, i32* %3, align 4
  br label %12

12:                                               ; preds = %22, %0
  %13 = load i32, i32* %3, align 4
  %14 = sext i32 %13 to i64
  %15 = getelementptr inbounds [500 x i8], [500 x i8]* %2, i64 0, i64 %14
  %16 = load i8, i8* %15, align 1
  %17 = sext i8 %16 to i32
  %18 = icmp eq i32 %17, 0
  br i1 %18, label %19, label %21

19:                                               ; preds = %12
  %20 = load i32, i32* %3, align 4
  store i32 %20, i32* %6, align 4
  br label %25

21:                                               ; preds = %12
  br label %22

22:                                               ; preds = %21
  %23 = load i32, i32* %3, align 4
  %24 = add nsw i32 %23, 1
  store i32 %24, i32* %3, align 4
  br label %12

25:                                               ; preds = %19
  store i32 0, i32* %3, align 4
  br label %26

26:                                               ; preds = %36, %25
  %27 = load i32, i32* %3, align 4
  %28 = icmp slt i32 %27, 500
  br i1 %28, label %29, label %39

29:                                               ; preds = %26
  %30 = load i32, i32* %3, align 4
  %31 = sext i32 %30 to i64
  %32 = getelementptr inbounds [500 x i8], [500 x i8]* %8, i64 0, i64 %31
  store i8 0, i8* %32, align 1
  %33 = load i32, i32* %3, align 4
  %34 = sext i32 %33 to i64
  %35 = getelementptr inbounds [500 x i8], [500 x i8]* %9, i64 0, i64 %34
  store i8 0, i8* %35, align 1
  br label %36

36:                                               ; preds = %29
  %37 = load i32, i32* %3, align 4
  %38 = add nsw i32 %37, 1
  store i32 %38, i32* %3, align 4
  br label %26

39:                                               ; preds = %26
  store i32 2, i32* %3, align 4
  br label %40

40:                                               ; preds = %103, %39
  %41 = load i32, i32* %3, align 4
  %42 = load i32, i32* %6, align 4
  %43 = icmp sle i32 %41, %42
  br i1 %43, label %44, label %106

44:                                               ; preds = %40
  store i32 0, i32* %4, align 4
  br label %45

45:                                               ; preds = %99, %44
  %46 = load i32, i32* %4, align 4
  %47 = load i32, i32* %6, align 4
  %48 = load i32, i32* %3, align 4
  %49 = sub nsw i32 %47, %48
  %50 = icmp sle i32 %46, %49
  br i1 %50, label %51, label %102

51:                                               ; preds = %45
  store i32 0, i32* %7, align 4
  br label %52

52:                                               ; preds = %69, %51
  %53 = load i32, i32* %7, align 4
  %54 = load i32, i32* %3, align 4
  %55 = icmp slt i32 %53, %54
  br i1 %55, label %56, label %72

56:                                               ; preds = %52
  %57 = load i32, i32* %4, align 4
  %58 = load i32, i32* %3, align 4
  %59 = add nsw i32 %57, %58
  %60 = load i32, i32* %7, align 4
  %61 = sub nsw i32 %59, %60
  %62 = sub nsw i32 %61, 1
  %63 = sext i32 %62 to i64
  %64 = getelementptr inbounds [500 x i8], [500 x i8]* %2, i64 0, i64 %63
  %65 = load i8, i8* %64, align 1
  %66 = load i32, i32* %7, align 4
  %67 = sext i32 %66 to i64
  %68 = getelementptr inbounds [500 x i8], [500 x i8]* %8, i64 0, i64 %67
  store i8 %65, i8* %68, align 1
  br label %69

69:                                               ; preds = %56
  %70 = load i32, i32* %7, align 4
  %71 = add nsw i32 %70, 1
  store i32 %71, i32* %7, align 4
  br label %52

72:                                               ; preds = %52
  store i32 0, i32* %7, align 4
  br label %73

73:                                               ; preds = %87, %72
  %74 = load i32, i32* %7, align 4
  %75 = load i32, i32* %3, align 4
  %76 = icmp slt i32 %74, %75
  br i1 %76, label %77, label %90

77:                                               ; preds = %73
  %78 = load i32, i32* %4, align 4
  %79 = load i32, i32* %7, align 4
  %80 = add nsw i32 %78, %79
  %81 = sext i32 %80 to i64
  %82 = getelementptr inbounds [500 x i8], [500 x i8]* %2, i64 0, i64 %81
  %83 = load i8, i8* %82, align 1
  %84 = load i32, i32* %7, align 4
  %85 = sext i32 %84 to i64
  %86 = getelementptr inbounds [500 x i8], [500 x i8]* %9, i64 0, i64 %85
  store i8 %83, i8* %86, align 1
  br label %87

87:                                               ; preds = %77
  %88 = load i32, i32* %7, align 4
  %89 = add nsw i32 %88, 1
  store i32 %89, i32* %7, align 4
  br label %73

90:                                               ; preds = %73
  %91 = getelementptr inbounds [500 x i8], [500 x i8]* %8, i64 0, i64 0
  %92 = getelementptr inbounds [500 x i8], [500 x i8]* %9, i64 0, i64 0
  %93 = call i32 @strcmp(i8* %91, i8* %92) #3
  %94 = icmp eq i32 %93, 0
  br i1 %94, label %95, label %98

95:                                               ; preds = %90
  %96 = getelementptr inbounds [500 x i8], [500 x i8]* %9, i64 0, i64 0
  %97 = call i32 @puts(i8* %96)
  br label %98

98:                                               ; preds = %95, %90
  br label %99

99:                                               ; preds = %98
  %100 = load i32, i32* %4, align 4
  %101 = add nsw i32 %100, 1
  store i32 %101, i32* %4, align 4
  br label %45

102:                                              ; preds = %45
  br label %103

103:                                              ; preds = %102
  %104 = load i32, i32* %3, align 4
  %105 = add nsw i32 %104, 1
  store i32 %105, i32* %3, align 4
  br label %40

106:                                              ; preds = %40
  %107 = load i32, i32* %1, align 4
  ret i32 %107
}

declare dso_local i32 @gets(...) #1

; Function Attrs: nounwind readonly
declare dso_local i32 @strcmp(i8*, i8*) #2

declare dso_local i32 @puts(i8*) #1


!llvm.module.flags = !{!0}
!llvm.ident = !{!1}

!0 = !{i32 1, !"wchar_size", i32 4}
!1 = !{!"clang version 10.0.0-4ubuntu1 "}
